target datalayout = "e-m:e-p270:32:32-p271:32:32-p272:64:64-i64:64-i128:128-f80:128-n8:16:32:64-S128"
target triple = "x86_64-unknown-linux-gnu"

%"class.std::shared_ptr" = type { %"class.std::__shared_ptr" }
%"class.std::__shared_ptr" = type { ptr, %"class.std::__shared_count" }
%"class.std::__shared_count" = type { ptr }
%"class.std::enable_shared_from_this" = type { %"class.std::weak_ptr" }
%"class.std::weak_ptr" = type { %"class.std::__weak_ptr" }
%"class.std::__weak_ptr" = type { ptr, %"class.std::__weak_count" }
%"class.std::__weak_count" = type { ptr }
%"class.absl::lts_20230802::AnyInvocable" = type { %"class.absl::lts_20230802::internal_any_invocable::Impl" }
%"class.absl::lts_20230802::internal_any_invocable::Impl" = type { %"class.absl::lts_20230802::internal_any_invocable::CoreImpl" }
%"class.absl::lts_20230802::internal_any_invocable::CoreImpl" = type { %"union.absl::lts_20230802::internal_any_invocable::TypeErasedState", ptr, ptr }
%"union.absl::lts_20230802::internal_any_invocable::TypeErasedState" = type { %struct.anon }
%struct.anon = type { ptr, i64 }
%"class.grpc_event_engine::experimental::PollEventHandle" = type { %"class.grpc_event_engine::experimental::EventHandle", %"class.absl::lts_20230802::Mutex", %"struct.std::atomic.0", i32, i32, %"class.grpc_event_engine::experimental::PollPoller::HandlesList", %"class.grpc_event_engine::experimental::PollPoller::HandlesList", ptr, %"class.std::shared_ptr", i8, i8, i8, i8, i8, i32, %"class.absl::lts_20230802::Status", %"class.grpc_event_engine::experimental::AnyInvocableClosure", ptr, ptr, ptr, [8 x i8] }
%"class.grpc_event_engine::experimental::EventHandle" = type { ptr }
%"class.absl::lts_20230802::Mutex" = type { %"struct.std::atomic" }
%"struct.std::atomic" = type { %"struct.std::__atomic_base" }
%"struct.std::__atomic_base" = type { i64 }
%"struct.std::atomic.0" = type { %"struct.std::__atomic_base.1" }
%"struct.std::__atomic_base.1" = type { i32 }
%"class.grpc_event_engine::experimental::PollPoller::HandlesList" = type { ptr, ptr, ptr }
%"class.absl::lts_20230802::Status" = type { i64 }
%"class.grpc_event_engine::experimental::AnyInvocableClosure" = type { %"class.grpc_event_engine::experimental::EventEngine::Closure", [8 x i8], %"class.absl::lts_20230802::AnyInvocable" }
%"class.grpc_event_engine::experimental::EventEngine::Closure" = type { ptr }
%"class.grpc_event_engine::experimental::PollPoller" = type <{ %"class.grpc_event_engine::experimental::PosixEventPoller", %"class.std::enable_shared_from_this", %"class.absl::lts_20230802::Mutex", ptr, i8, i8, i8, i8, i32, ptr, %"class.std::unique_ptr", i8, [7 x i8] }>
%"class.grpc_event_engine::experimental::PosixEventPoller" = type { %"class.grpc_event_engine::experimental::Poller", %"class.grpc_event_engine::experimental::Forkable" }
%"class.grpc_event_engine::experimental::Poller" = type { ptr }
%"class.grpc_event_engine::experimental::Forkable" = type { ptr }
%"class.std::unique_ptr" = type { %"struct.std::__uniq_ptr_data" }
%"struct.std::__uniq_ptr_data" = type { %"class.std::__uniq_ptr_impl" }
%"class.std::__uniq_ptr_impl" = type { %"class.std::tuple" }
%"class.std::tuple" = type { %"struct.std::_Tuple_impl" }
%"struct.std::_Tuple_impl" = type { %"struct.std::_Head_base.3" }
%"struct.std::_Head_base.3" = type { ptr }

; Function Attrs: mustprogress nounwind uwtable
define linkonce_odr noundef nonnull align 8 dereferenceable(24) ptr @_ZN17grpc_event_engine12experimental15PollEventHandle20PollerHandlesListPosEv(ptr noundef nonnull align 16 dereferenceable(200) %this) #4 comdat align 2 {
entry:
  %this.addr = alloca ptr, align 8
  store ptr %this, ptr %this.addr, align 8
  %this1 = load ptr, ptr %this.addr, align 8
  %poller_handles_list_ = getelementptr inbounds %"class.grpc_event_engine::experimental::PollEventHandle", ptr %this1, i32 0, i32 6
  ret ptr %poller_handles_list_
}

; Function Attrs: mustprogress uwtable
define void @_ZN17grpc_event_engine12experimental10PollPoller29PollerHandlesListRemoveHandleEPNS0_15PollEventHandleE(ptr noundef nonnull align 8 dereferenceable(73) %this, ptr noundef %handle) #5 align 2 {
entry:
  %this.addr = alloca ptr, align 8
  %handle.addr = alloca ptr, align 8
  store ptr %this, ptr %this.addr, align 8
  store ptr %handle, ptr %handle.addr, align 8
  %this1 = load ptr, ptr %this.addr, align 8
  %poll_handles_list_head_ = getelementptr inbounds %"class.grpc_event_engine::experimental::PollPoller", ptr %this1, i32 0, i32 9
  %0 = load ptr, ptr %poll_handles_list_head_, align 8
  %1 = load ptr, ptr %handle.addr, align 8
  %cmp = icmp eq ptr %0, %1
  br i1 %cmp, label %if.then, label %if.end

if.then:                                          ; preds = %entry
  %2 = load ptr, ptr %handle.addr, align 8
  %call = call noundef nonnull align 8 dereferenceable(24) ptr @_ZN17grpc_event_engine12experimental15PollEventHandle20PollerHandlesListPosEv(ptr noundef nonnull align 16 dereferenceable(200) %2)
  %next = getelementptr inbounds %"class.grpc_event_engine::experimental::PollPoller::HandlesList", ptr %call, i32 0, i32 1
  %3 = load ptr, ptr %next, align 8
  %poll_handles_list_head_2 = getelementptr inbounds %"class.grpc_event_engine::experimental::PollPoller", ptr %this1, i32 0, i32 9
  store ptr %3, ptr %poll_handles_list_head_2, align 8
  br label %if.end

if.end:                                           ; preds = %if.then, %entry
  %4 = load ptr, ptr %handle.addr, align 8
  %call3 = call noundef nonnull align 8 dereferenceable(24) ptr @_ZN17grpc_event_engine12experimental15PollEventHandle20PollerHandlesListPosEv(ptr noundef nonnull align 16 dereferenceable(200) %4)
  %prev = getelementptr inbounds %"class.grpc_event_engine::experimental::PollPoller::HandlesList", ptr %call3, i32 0, i32 2
  %5 = load ptr, ptr %prev, align 8
  %cmp4 = icmp ne ptr %5, null
  br i1 %cmp4, label %if.then5, label %if.end12

if.then5:                                         ; preds = %if.end
  %6 = load ptr, ptr %handle.addr, align 8
  %call6 = call noundef nonnull align 8 dereferenceable(24) ptr @_ZN17grpc_event_engine12experimental15PollEventHandle20PollerHandlesListPosEv(ptr noundef nonnull align 16 dereferenceable(200) %6)
  %next7 = getelementptr inbounds %"class.grpc_event_engine::experimental::PollPoller::HandlesList", ptr %call6, i32 0, i32 1
  %7 = load ptr, ptr %next7, align 8
  %8 = load ptr, ptr %handle.addr, align 8
  %call8 = call noundef nonnull align 8 dereferenceable(24) ptr @_ZN17grpc_event_engine12experimental15PollEventHandle20PollerHandlesListPosEv(ptr noundef nonnull align 16 dereferenceable(200) %8)
  %prev9 = getelementptr inbounds %"class.grpc_event_engine::experimental::PollPoller::HandlesList", ptr %call8, i32 0, i32 2
  %9 = load ptr, ptr %prev9, align 8
  %call10 = call noundef nonnull align 8 dereferenceable(24) ptr @_ZN17grpc_event_engine12experimental15PollEventHandle20PollerHandlesListPosEv(ptr noundef nonnull align 16 dereferenceable(200) %9)
  %next11 = getelementptr inbounds %"class.grpc_event_engine::experimental::PollPoller::HandlesList", ptr %call10, i32 0, i32 1
  store ptr %7, ptr %next11, align 8
  br label %if.end12

if.end12:                                         ; preds = %if.then5, %if.end
  %10 = load ptr, ptr %handle.addr, align 8
  %call13 = call noundef nonnull align 8 dereferenceable(24) ptr @_ZN17grpc_event_engine12experimental15PollEventHandle20PollerHandlesListPosEv(ptr noundef nonnull align 16 dereferenceable(200) %10)
  %next14 = getelementptr inbounds %"class.grpc_event_engine::experimental::PollPoller::HandlesList", ptr %call13, i32 0, i32 1
  %11 = load ptr, ptr %next14, align 8
  %cmp15 = icmp ne ptr %11, null
  br i1 %cmp15, label %if.then16, label %if.end23

if.then16:                                        ; preds = %if.end12
  %12 = load ptr, ptr %handle.addr, align 8
  %call17 = call noundef nonnull align 8 dereferenceable(24) ptr @_ZN17grpc_event_engine12experimental15PollEventHandle20PollerHandlesListPosEv(ptr noundef nonnull align 16 dereferenceable(200) %12)
  %prev18 = getelementptr inbounds %"class.grpc_event_engine::experimental::PollPoller::HandlesList", ptr %call17, i32 0, i32 2
  %13 = load ptr, ptr %prev18, align 8
  %14 = load ptr, ptr %handle.addr, align 8
  %call19 = call noundef nonnull align 8 dereferenceable(24) ptr @_ZN17grpc_event_engine12experimental15PollEventHandle20PollerHandlesListPosEv(ptr noundef nonnull align 16 dereferenceable(200) %14)
  %next20 = getelementptr inbounds %"class.grpc_event_engine::experimental::PollPoller::HandlesList", ptr %call19, i32 0, i32 1
  %15 = load ptr, ptr %next20, align 8
  %call21 = call noundef nonnull align 8 dereferenceable(24) ptr @_ZN17grpc_event_engine12experimental15PollEventHandle20PollerHandlesListPosEv(ptr noundef nonnull align 16 dereferenceable(200) %15)
  %prev22 = getelementptr inbounds %"class.grpc_event_engine::experimental::PollPoller::HandlesList", ptr %call21, i32 0, i32 2
  store ptr %13, ptr %prev22, align 8
  br label %if.end23

if.end23:                                         ; preds = %if.then16, %if.end12
  %num_poll_handles_ = getelementptr inbounds %"class.grpc_event_engine::experimental::PollPoller", ptr %this1, i32 0, i32 8
  %16 = load i32, ptr %num_poll_handles_, align 4
  %dec = add nsw i32 %16, -1
  store i32 %dec, ptr %num_poll_handles_, align 4
  ret void
}