; Function Attrs: mustprogress nofree norecurse nosync nounwind willreturn memory(write, argmem: readwrite, inaccessiblemem: none) uwtable
define void @_ZN17grpc_event_engine12experimental10PollPoller29PollerHandlesListRemoveHandleEPNS0_15PollEventHandleE(ptr nocapture noundef nonnull align 8 dereferenceable(73) %this, ptr noundef readonly %handle) local_unnamed_addr #10 align 2 {
entry:
  %poll_handles_list_head_ = getelementptr inbounds i8, ptr %this, i64 56
  %0 = load ptr, ptr %poll_handles_list_head_, align 8
  %cmp = icmp eq ptr %0, %handle
  br i1 %cmp, label %if.then, label %if.end

if.then:                                          ; preds = %entry
  %next = getelementptr inbounds i8, ptr %handle, i64 64
  %1 = load ptr, ptr %next, align 8
  store ptr %1, ptr %poll_handles_list_head_, align 8
  br label %if.end

if.end:                                           ; preds = %if.then, %entry
  %prev = getelementptr inbounds i8, ptr %handle, i64 72
  %2 = load ptr, ptr %prev, align 8
  %cmp4.not = icmp eq ptr %2, null
  %next14.phi.trans.insert = getelementptr inbounds i8, ptr %handle, i64 64
  %.pre = load ptr, ptr %next14.phi.trans.insert, align 8
  br i1 %cmp4.not, label %if.end12, label %if.then5

if.then5:                                         ; preds = %if.end
  %next11 = getelementptr inbounds i8, ptr %2, i64 64
  store ptr %.pre, ptr %next11, align 8
  br label %if.end12

if.end12:                                         ; preds = %if.end, %if.then5
  %cmp15.not = icmp eq ptr %.pre, null
  br i1 %cmp15.not, label %if.end23, label %if.then16

if.then16:                                        ; preds = %if.end12
  %3 = load ptr, ptr %prev, align 8
  %prev22 = getelementptr inbounds i8, ptr %.pre, i64 72
  store ptr %3, ptr %prev22, align 8
  br label %if.end23

if.end23:                                         ; preds = %if.then16, %if.end12
  %num_poll_handles_ = getelementptr inbounds i8, ptr %this, i64 52
  %4 = load i32, ptr %num_poll_handles_, align 4
  %dec = add nsw i32 %4, -1
  store i32 %dec, ptr %num_poll_handles_, align 4
  ret void
}